; Function Attrs: mustprogress nofree norecurse nosync nounwind memory(read, argmem: readwrite, inaccessiblemem: none) uwtable
define void @_ZNK3gmx16ScaleCoordinates24inverseIgnoringZeroScaleEPNS_11BasicVectorIfEE(ptr nocapture noundef nonnull readonly align 8 dereferenceable(8) %0, ptr nocapture noundef %1) local_unnamed_addr #7 align 2 {
  %3 = alloca %"class.gmx::BasicVector", align 8
  %4 = load ptr, ptr %0, align 8
  call void @llvm.lifetime.start.p0(i64 12, ptr nonnull %3)
  br label %13

.lr.ph.i:                                         ; preds = %13
  %5 = getelementptr inbounds i8, ptr %3, i64 8
  %6 = load float, ptr %5, align 8
  %7 = load <2 x float>, ptr %3, align 8
  %8 = load <2 x float>, ptr %1, align 4
  %9 = fmul <2 x float> %7, %8
  store <2 x float> %9, ptr %1, align 4
  %10 = getelementptr inbounds i8, ptr %1, i64 8
  %11 = load float, ptr %10, align 4
  %12 = fmul float %6, %11
  store float %12, ptr %10, align 4
  call void @llvm.lifetime.end.p0(i64 12, ptr nonnull %3)
  ret void

13:                                               ; preds = %13, %2
  %indvars.iv.i = phi i64 [ 0, %2 ], [ %indvars.iv.next.i, %13 ]
  %14 = getelementptr inbounds [3 x float], ptr %4, i64 0, i64 %indvars.iv.i
  %15 = load float, ptr %14, align 4
  %16 = fcmp une float %15, 0.000000e+00
  %17 = fdiv float 1.000000e+00, %15
  %18 = select i1 %16, float %17, float 1.000000e+00
  %19 = getelementptr inbounds [3 x float], ptr %3, i64 0, i64 %indvars.iv.i
  store float %18, ptr %19, align 4
  %indvars.iv.next.i = add nuw nsw i64 %indvars.iv.i, 1
  %exitcond.not.i = icmp eq i64 %indvars.iv.next.i, 3
  br i1 %exitcond.not.i, label %.lr.ph.i, label %13, !llvm.loop !5
}